target datalayout = "e-m:e-p270:32:32-p271:32:32-p272:64:64-i64:64-i128:128-f80:128-n8:16:32:64-S128"
target triple = "x86_64-unknown-linux-gnu"

%"class.std::__cxx11::basic_string" = type { %"struct.std::__cxx11::basic_string<char>::_Alloc_hider", i64, %union.anon }
%"struct.std::__cxx11::basic_string<char>::_Alloc_hider" = type { ptr }
%union.anon = type { i64, [8 x i8] }

@__dso_handle = external hidden global i8
@_ZZNK19OpenColorIO_v2_4dev17XmlReaderDummyElt13getIdentifierB5cxx11EvE9emptyNameB5cxx11 = internal global %"class.std::__cxx11::basic_string" zeroinitializer, align 8
@_ZGVZNK19OpenColorIO_v2_4dev17XmlReaderDummyElt13getIdentifierB5cxx11EvE9emptyNameB5cxx11 = internal global i64 0, align 8

; Function Attrs: mustprogress nounwind uwtable
define hidden noundef nonnull align 8 dereferenceable(32) ptr @_ZNK19OpenColorIO_v2_4dev17XmlReaderDummyElt13getIdentifierB5cxx11Ev(ptr noundef nonnull align 8 dereferenceable(120) %this) unnamed_addr #4 align 2 {
entry:
  %this.addr = alloca ptr, align 8
  store ptr %this, ptr %this.addr, align 8
  %0 = load atomic i8, ptr @_ZGVZNK19OpenColorIO_v2_4dev17XmlReaderDummyElt13getIdentifierB5cxx11EvE9emptyNameB5cxx11 acquire, align 8
  %guard.uninitialized = icmp eq i8 %0, 0
  br i1 %guard.uninitialized, label %init.check, label %init.end, !prof !4

init.check:                                       ; preds = %entry
  %1 = call i32 @__cxa_guard_acquire(ptr @_ZGVZNK19OpenColorIO_v2_4dev17XmlReaderDummyElt13getIdentifierB5cxx11EvE9emptyNameB5cxx11) #3
  %tobool = icmp ne i32 %1, 0
  br i1 %tobool, label %init, label %init.end

init:                                             ; preds = %init.check
  call void @_ZNSt7__cxx1112basic_stringIcSt11char_traitsIcESaIcEEC1Ev(ptr noundef nonnull align 8 dereferenceable(32) @_ZZNK19OpenColorIO_v2_4dev17XmlReaderDummyElt13getIdentifierB5cxx11EvE9emptyNameB5cxx11) #3
  %2 = call i32 @__cxa_atexit(ptr @_ZNSt7__cxx1112basic_stringIcSt11char_traitsIcESaIcEED1Ev, ptr @_ZZNK19OpenColorIO_v2_4dev17XmlReaderDummyElt13getIdentifierB5cxx11EvE9emptyNameB5cxx11, ptr @__dso_handle) #3
  call void @__cxa_guard_release(ptr @_ZGVZNK19OpenColorIO_v2_4dev17XmlReaderDummyElt13getIdentifierB5cxx11EvE9emptyNameB5cxx11) #3
  br label %init.end

init.end:                                         ; preds = %init, %init.check, %entry
  ret ptr @_ZZNK19OpenColorIO_v2_4dev17XmlReaderDummyElt13getIdentifierB5cxx11EvE9emptyNameB5cxx11
}